target datalayout = "e-m:e-p270:32:32-p271:32:32-p272:64:64-i64:64-i128:128-f80:128-n8:16:32:64-S128"
target triple = "x86_64-unknown-linux-gnu"

%struct.ESPState = type { %struct.DeviceState, [16 x i8], [16 x i8], ptr, ptr, i8, i8, i32, i32, i32, %struct.Fifo8, %struct.SCSIBus, ptr, ptr, %struct.Fifo8, i8, i8, i32, i8, i8, i32, i32, ptr, ptr, ptr, ptr, ptr, i8, i8, i32, i32, i8, i32, i32, [16 x i8], [32 x i8], i32 }
%struct.DeviceState = type { %struct.Object, ptr, ptr, i8, i8, i64, ptr, i32, i8, ptr, %struct.NamedGPIOListHead, %struct.NamedClockListHead, %struct.BusStateHead, i32, i32, i32, %struct.ResettableState, ptr, %struct.MemReentrancyGuard }
%struct.Object = type { ptr, ptr, ptr, i32, ptr }
%struct.NamedGPIOListHead = type { ptr }
%struct.NamedClockListHead = type { ptr }
%struct.BusStateHead = type { ptr }
%struct.ResettableState = type { i32, i8, i8 }
%struct.MemReentrancyGuard = type { i8 }
%struct.SCSIBus = type { %struct.BusState, i32, %struct.SCSISense, ptr, i32 }
%struct.BusState = type { %struct.Object, ptr, ptr, ptr, i32, i8, i8, i32, %union.BusChildHead, %struct.BusStateEntry, %struct.ResettableState }
%union.BusChildHead = type { %struct.QTailQLink }
%struct.QTailQLink = type { ptr, ptr }
%struct.BusStateEntry = type { ptr, ptr }
%struct.SCSISense = type { i8, i8, i8 }
%struct.Fifo8 = type { ptr, i32, i32, i32 }
%struct.timeval = type { i64, i64 }

@trace_events_enabled_count = external global i32, align 4
@message_with_timestamp = external global i8, align 1
@qemu_loglevel = external global i32, align 4
@_TRACE_ESP_HANDLE_SATN_STOP_DSTATE = external global i16, align 2
@.str.94 = private unnamed_addr constant [45 x i8] c"%d@%zu.%06zu:esp_handle_satn_stop cmdlen %d\0A\00", align 1
@.str.95 = private unnamed_addr constant [32 x i8] c"esp_handle_satn_stop cmdlen %d\0A\00", align 1

; Function Attrs: nounwind sspstrong uwtable
define internal zeroext i1 @qemu_loglevel_mask(i32 noundef %mask) #0 {
entry:
  %mask.addr = alloca i32, align 4
  store i32 %mask, ptr %mask.addr, align 4
  %0 = load i32, ptr @qemu_loglevel, align 4
  %1 = load i32, ptr %mask.addr, align 4
  %and = and i32 %0, %1
  %cmp = icmp ne i32 %and, 0
  ret i1 %cmp
}

; Function Attrs: nounwind sspstrong uwtable
define internal void @_nocheck__trace_esp_handle_satn_stop(i32 noundef %cmdlen) #0 {
entry:
  %cmdlen.addr = alloca i32, align 4
  %_now = alloca %struct.timeval, align 8
  store i32 %cmdlen, ptr %cmdlen.addr, align 4
  %0 = load i32, ptr @trace_events_enabled_count, align 4
  %tobool = icmp ne i32 %0, 0
  %lnot = xor i1 %tobool, true
  %lnot1 = xor i1 %lnot, true
  %lnot.ext = zext i1 %lnot1 to i32
  %conv = sext i32 %lnot.ext to i64
  %tobool2 = icmp ne i64 %conv, 0
  br i1 %tobool2, label %land.lhs.true, label %if.end11

land.lhs.true:                                    ; preds = %entry
  %1 = load i16, ptr @_TRACE_ESP_HANDLE_SATN_STOP_DSTATE, align 2
  %conv3 = zext i16 %1 to i32
  %tobool4 = icmp ne i32 %conv3, 0
  br i1 %tobool4, label %land.lhs.true5, label %if.end11

land.lhs.true5:                                   ; preds = %land.lhs.true
  %call = call zeroext i1 @qemu_loglevel_mask(i32 noundef 32768)
  br i1 %call, label %if.then, label %if.end11

if.then:                                          ; preds = %land.lhs.true5
  %2 = load i8, ptr @message_with_timestamp, align 1
  %tobool7 = trunc i8 %2 to i1
  br i1 %tobool7, label %if.then8, label %if.else

if.then8:                                         ; preds = %if.then
  %call9 = call i32 @gettimeofday(ptr noundef %_now, ptr noundef null) #8
  %call10 = call i32 @qemu_get_thread_id()
  %tv_sec = getelementptr inbounds %struct.timeval, ptr %_now, i32 0, i32 0
  %3 = load i64, ptr %tv_sec, align 8
  %tv_usec = getelementptr inbounds %struct.timeval, ptr %_now, i32 0, i32 1
  %4 = load i64, ptr %tv_usec, align 8
  %5 = load i32, ptr %cmdlen.addr, align 4
  call void (ptr, ...) @qemu_log(ptr noundef @.str.94, i32 noundef %call10, i64 noundef %3, i64 noundef %4, i32 noundef %5)
  br label %if.end

if.else:                                          ; preds = %if.then
  %6 = load i32, ptr %cmdlen.addr, align 4
  call void (ptr, ...) @qemu_log(ptr noundef @.str.95, i32 noundef %6)
  br label %if.end

if.end:                                           ; preds = %if.else, %if.then8
  br label %if.end11

if.end11:                                         ; preds = %if.end, %land.lhs.true5, %land.lhs.true, %entry
  ret void
}

; Function Attrs: nounwind sspstrong uwtable
define internal void @trace_esp_handle_satn_stop(i32 noundef %cmdlen) #0 {
entry:
  %cmdlen.addr = alloca i32, align 4
  store i32 %cmdlen, ptr %cmdlen.addr, align 4
  %0 = load i32, ptr %cmdlen.addr, align 4
  call void @_nocheck__trace_esp_handle_satn_stop(i32 noundef %0)
  ret void
}

; Function Attrs: nounwind sspstrong uwtable
define internal void @esp_set_pdma_cb(ptr noundef %s, i32 noundef %cb) #0 {
entry:
  %s.addr = alloca ptr, align 8
  %cb.addr = alloca i32, align 4
  store ptr %s, ptr %s.addr, align 8
  store i32 %cb, ptr %cb.addr, align 4
  %0 = load i32, ptr %cb.addr, align 4
  %conv = trunc i32 %0 to i8
  %1 = load ptr, ptr %s.addr, align 8
  %pdma_cb = getelementptr inbounds %struct.ESPState, ptr %1, i32 0, i32 27
  store i8 %conv, ptr %pdma_cb, align 8
  ret void
}

; Function Attrs: nounwind sspstrong uwtable
define internal void @handle_satn_stop(ptr noundef %s) #0 {
entry:
  %s.addr = alloca ptr, align 8
  %cmdlen = alloca i32, align 4
  store ptr %s, ptr %s.addr, align 8
  %0 = load ptr, ptr %s.addr, align 8
  %dma = getelementptr inbounds %struct.ESPState, ptr %0, i32 0, i32 9
  %1 = load i32, ptr %dma, align 4
  %tobool = icmp ne i32 %1, 0
  br i1 %tobool, label %land.lhs.true, label %if.end

land.lhs.true:                                    ; preds = %entry
  %2 = load ptr, ptr %s.addr, align 8
  %dma_enabled = getelementptr inbounds %struct.ESPState, ptr %2, i32 0, i32 20
  %3 = load i32, ptr %dma_enabled, align 4
  %tobool1 = icmp ne i32 %3, 0
  br i1 %tobool1, label %if.end, label %if.then

if.then:                                          ; preds = %land.lhs.true
  %4 = load ptr, ptr %s.addr, align 8
  %dma_cb = getelementptr inbounds %struct.ESPState, ptr %4, i32 0, i32 26
  store ptr @handle_satn_stop, ptr %dma_cb, align 8
  br label %if.end18

if.end:                                           ; preds = %land.lhs.true, %entry
  %5 = load ptr, ptr %s.addr, align 8
  call void @esp_set_pdma_cb(ptr noundef %5, i32 noundef 2)
  %6 = load ptr, ptr %s.addr, align 8
  %call = call i32 @get_cmd(ptr noundef %6, i32 noundef 1)
  store i32 %call, ptr %cmdlen, align 4
  %7 = load i32, ptr %cmdlen, align 4
  %cmp = icmp sgt i32 %7, 0
  br i1 %cmp, label %if.then2, label %if.else

if.then2:                                         ; preds = %if.end
  %8 = load ptr, ptr %s.addr, align 8
  %cmdfifo = getelementptr inbounds %struct.ESPState, ptr %8, i32 0, i32 14
  %call3 = call i32 @fifo8_num_used(ptr noundef %cmdfifo)
  call void @trace_esp_handle_satn_stop(i32 noundef %call3)
  %9 = load ptr, ptr %s.addr, align 8
  %do_cmd = getelementptr inbounds %struct.ESPState, ptr %9, i32 0, i32 17
  store i32 1, ptr %do_cmd, align 4
  %10 = load ptr, ptr %s.addr, align 8
  %cmdfifo_cdb_offset = getelementptr inbounds %struct.ESPState, ptr %10, i32 0, i32 15
  store i8 1, ptr %cmdfifo_cdb_offset, align 8
  %11 = load ptr, ptr %s.addr, align 8
  %rregs = getelementptr inbounds %struct.ESPState, ptr %11, i32 0, i32 1
  %arrayidx = getelementptr [16 x i8], ptr %rregs, i64 0, i64 4
  store i8 6, ptr %arrayidx, align 4
  %12 = load ptr, ptr %s.addr, align 8
  %rregs4 = getelementptr inbounds %struct.ESPState, ptr %12, i32 0, i32 1
  %arrayidx5 = getelementptr [16 x i8], ptr %rregs4, i64 0, i64 5
  %13 = load i8, ptr %arrayidx5, align 1
  %conv = zext i8 %13 to i32
  %or = or i32 %conv, 24
  %conv6 = trunc i32 %or to i8
  store i8 %conv6, ptr %arrayidx5, align 1
  %14 = load ptr, ptr %s.addr, align 8
  %rregs7 = getelementptr inbounds %struct.ESPState, ptr %14, i32 0, i32 1
  %arrayidx8 = getelementptr [16 x i8], ptr %rregs7, i64 0, i64 6
  store i8 1, ptr %arrayidx8, align 2
  %15 = load ptr, ptr %s.addr, align 8
  call void @esp_raise_irq(ptr noundef %15)
  br label %if.end18

if.else:                                          ; preds = %if.end
  %16 = load i32, ptr %cmdlen, align 4
  %cmp9 = icmp eq i32 %16, 0
  br i1 %cmp9, label %if.then11, label %if.end17

if.then11:                                        ; preds = %if.else
  %17 = load ptr, ptr %s.addr, align 8
  %do_cmd12 = getelementptr inbounds %struct.ESPState, ptr %17, i32 0, i32 17
  store i32 1, ptr %do_cmd12, align 4
  %18 = load ptr, ptr %s.addr, align 8
  %rregs13 = getelementptr inbounds %struct.ESPState, ptr %18, i32 0, i32 1
  %arrayidx14 = getelementptr [16 x i8], ptr %rregs13, i64 0, i64 6
  store i8 1, ptr %arrayidx14, align 2
  %19 = load ptr, ptr %s.addr, align 8
  %rregs15 = getelementptr inbounds %struct.ESPState, ptr %19, i32 0, i32 1
  %arrayidx16 = getelementptr [16 x i8], ptr %rregs15, i64 0, i64 4
  store i8 6, ptr %arrayidx16, align 4
  br label %if.end17

if.end17:                                         ; preds = %if.then11, %if.else
  br label %if.end18

if.end18:                                         ; preds = %if.end17, %if.then2, %if.then
  ret void
}