; Function Attrs: nounwind sspstrong uwtable
define internal void @handle_satn_stop(ptr noundef %s) #0 {
entry:
  %_now.i.i = alloca %struct.timeval, align 8
  %dma = getelementptr inbounds nuw i8, ptr %s, i64 220
  %0 = load i32, ptr %dma, align 4
  %tobool.not = icmp eq i32 %0, 0
  br i1 %tobool.not, label %if.end, label %land.lhs.true

land.lhs.true:                                    ; preds = %entry
  %dma_enabled = getelementptr inbounds nuw i8, ptr %s, i64 444
  %1 = load i32, ptr %dma_enabled, align 4
  %tobool1.not = icmp eq i32 %1, 0
  br i1 %tobool1.not, label %if.then, label %if.end

if.then:                                          ; preds = %land.lhs.true
  %dma_cb = getelementptr inbounds nuw i8, ptr %s, i64 488
  store ptr @handle_satn_stop, ptr %dma_cb, align 8
  br label %if.end18

if.end:                                           ; preds = %land.lhs.true, %entry
  %pdma_cb.i = getelementptr inbounds nuw i8, ptr %s, i64 496
  store i8 2, ptr %pdma_cb.i, align 8
  %call = tail call fastcc i32 @get_cmd(ptr noundef nonnull %s, i32 noundef 1)
  %cmp = icmp sgt i32 %call, 0
  br i1 %cmp, label %if.then2, label %if.else

if.then2:                                         ; preds = %if.end
  %cmdfifo = getelementptr inbounds nuw i8, ptr %s, i64 408
  %call3 = tail call i32 @fifo8_num_used(ptr noundef nonnull %cmdfifo) #10
  call void @llvm.lifetime.start.p0(i64 16, ptr nonnull %_now.i.i)
  %2 = load i32, ptr @trace_events_enabled_count, align 4
  %tobool.i.i = icmp ne i32 %2, 0
  %3 = load i16, ptr @_TRACE_ESP_HANDLE_SATN_STOP_DSTATE, align 2
  %tobool4.i.i = icmp ne i16 %3, 0
  %or.cond.i.i = select i1 %tobool.i.i, i1 %tobool4.i.i, i1 false
  br i1 %or.cond.i.i, label %land.lhs.true5.i.i, label %trace_esp_handle_satn_stop.exit

land.lhs.true5.i.i:                               ; preds = %if.then2
  %4 = load i32, ptr @qemu_loglevel, align 4
  %and.i.i.i = and i32 %4, 32768
  %cmp.i.not.i.i = icmp eq i32 %and.i.i.i, 0
  br i1 %cmp.i.not.i.i, label %trace_esp_handle_satn_stop.exit, label %if.then.i.i

if.then.i.i:                                      ; preds = %land.lhs.true5.i.i
  %5 = load i8, ptr @message_with_timestamp, align 1
  %tobool7.i.i = trunc i8 %5 to i1
  br i1 %tobool7.i.i, label %if.then8.i.i, label %if.else.i.i

if.then8.i.i:                                     ; preds = %if.then.i.i
  %call9.i.i = call i32 @gettimeofday(ptr noundef nonnull %_now.i.i, ptr noundef null) #10
  %call10.i.i = tail call i32 @qemu_get_thread_id() #10
  %6 = load i64, ptr %_now.i.i, align 8
  %tv_usec.i.i = getelementptr inbounds nuw i8, ptr %_now.i.i, i64 8
  %7 = load i64, ptr %tv_usec.i.i, align 8
  tail call void (ptr, ...) @qemu_log(ptr noundef nonnull @.str.94, i32 noundef %call10.i.i, i64 noundef %6, i64 noundef %7, i32 noundef %call3) #10
  br label %trace_esp_handle_satn_stop.exit

if.else.i.i:                                      ; preds = %if.then.i.i
  tail call void (ptr, ...) @qemu_log(ptr noundef nonnull @.str.95, i32 noundef %call3) #10
  br label %trace_esp_handle_satn_stop.exit

trace_esp_handle_satn_stop.exit:                  ; preds = %if.then2, %land.lhs.true5.i.i, %if.then8.i.i, %if.else.i.i
  call void @llvm.lifetime.end.p0(i64 16, ptr nonnull %_now.i.i)
  %do_cmd = getelementptr inbounds nuw i8, ptr %s, i64 436
  store i32 1, ptr %do_cmd, align 4
  %cmdfifo_cdb_offset = getelementptr inbounds nuw i8, ptr %s, i64 432
  store i8 1, ptr %cmdfifo_cdb_offset, align 8
  %arrayidx = getelementptr i8, ptr %s, i64 164
  store i8 6, ptr %arrayidx, align 4
  %arrayidx5 = getelementptr i8, ptr %s, i64 165
  %8 = load i8, ptr %arrayidx5, align 1
  %9 = or i8 %8, 24
  store i8 %9, ptr %arrayidx5, align 1
  %arrayidx8 = getelementptr i8, ptr %s, i64 166
  store i8 1, ptr %arrayidx8, align 2
  tail call fastcc void @esp_raise_irq(ptr noundef nonnull %s)
  br label %if.end18

if.else:                                          ; preds = %if.end
  %cmp9 = icmp eq i32 %call, 0
  br i1 %cmp9, label %if.then11, label %if.end18

if.then11:                                        ; preds = %if.else
  %do_cmd12 = getelementptr inbounds nuw i8, ptr %s, i64 436
  store i32 1, ptr %do_cmd12, align 4
  %arrayidx14 = getelementptr i8, ptr %s, i64 166
  store i8 1, ptr %arrayidx14, align 2
  %arrayidx16 = getelementptr i8, ptr %s, i64 164
  store i8 6, ptr %arrayidx16, align 4
  br label %if.end18

if.end18:                                         ; preds = %if.else, %if.then11, %trace_esp_handle_satn_stop.exit, %if.then
  ret void
}